; Function Attrs: nounwind uwtable
define hidden i32 @drsuapi_dissect_struct_DsReplicaAddRequest1(ptr noundef %0, i32 noundef %1, ptr noundef %2, ptr noundef %3, ptr noundef %4, ptr noundef %5, i32 noundef %6, i32 %7) local_unnamed_addr #0 {
  %9 = getelementptr inbounds nuw i8, ptr %4, i64 72
  %10 = load ptr, ptr %9, align 8
  %11 = getelementptr inbounds nuw i8, ptr %10, i64 96
  %12 = load i32, ptr %11, align 8
  %13 = and i32 %12, 1
  %.not = icmp eq i32 %13, 0
  %14 = getelementptr inbounds nuw i8, ptr %4, i64 28
  %15 = load i32, ptr %14, align 4
  %.not52 = icmp ne i32 %15, 0
  br i1 %.not, label %21, label %16

16:                                               ; preds = %8
  %17 = and i32 %1, 7
  %.not55 = icmp eq i32 %17, 0
  %or.cond = or i1 %.not55, %.not52
  br i1 %or.cond, label %26, label %18

18:                                               ; preds = %16
  %19 = and i32 %1, -8
  %20 = add i32 %19, 8
  br label %26

21:                                               ; preds = %8
  %22 = and i32 %1, 3
  %.not53 = icmp eq i32 %22, 0
  %or.cond60 = or i1 %.not53, %.not52
  br i1 %or.cond60, label %26, label %23

23:                                               ; preds = %21
  %24 = and i32 %1, -4
  %25 = add i32 %24, 4
  br label %26

26:                                               ; preds = %21, %23, %16, %18
  %.0 = phi i32 [ %1, %16 ], [ %20, %18 ], [ %1, %21 ], [ %25, %23 ]
  %.not56 = icmp eq ptr %3, null
  br i1 %.not56, label %31, label %27

27:                                               ; preds = %26
  %28 = tail call ptr @proto_tree_add_item(ptr noundef nonnull %3, i32 noundef %6, ptr noundef %0, i32 noundef %.0, i32 noundef -1, i32 noundef 0) #5
  %29 = load i32, ptr @ett_drsuapi_drsuapi_DsReplicaAddRequest1, align 4
  %30 = tail call ptr @proto_item_add_subtree(ptr noundef %28, i32 noundef %29) #5
  br label %31

31:                                               ; preds = %27, %26
  %.050 = phi ptr [ %28, %27 ], [ null, %26 ]
  %.049 = phi ptr [ %30, %27 ], [ null, %26 ]
  %32 = load i32, ptr @hf_drsuapi_drsuapi_DsReplicaAddRequest1_naming_context, align 4
  %33 = tail call i32 @dissect_ndr_embedded_pointer(ptr noundef %0, i32 noundef %.0, ptr noundef %2, ptr noundef %.049, ptr noundef nonnull %4, ptr noundef %5, ptr noundef nonnull @drsuapi_dissect_element_DsReplicaAddRequest1_naming_context_, i32 noundef 1, ptr noundef nonnull @.str.1432, i32 noundef %32) #5
  %34 = load i32, ptr @hf_drsuapi_drsuapi_DsReplicaAddRequest1_source_dsa_address, align 4
  %35 = tail call i32 @dissect_ndr_embedded_pointer(ptr noundef %0, i32 noundef %33, ptr noundef %2, ptr noundef %.049, ptr noundef nonnull %4, ptr noundef %5, ptr noundef nonnull @drsuapi_dissect_element_DsReplicaAddRequest1_source_dsa_address_, i32 noundef 2, ptr noundef nonnull @.str.1455, i32 noundef %34) #5
  br label %36

36:                                               ; preds = %36, %31
  %.010.i = phi i32 [ 0, %31 ], [ %39, %36 ]
  %.089.i = phi i32 [ %35, %31 ], [ %38, %36 ]
  %37 = load i32, ptr @hf_drsuapi_drsuapi_DsReplicaAddRequest1_schedule, align 4
  %38 = tail call i32 @PIDL_dissect_uint8(ptr noundef %0, i32 noundef %.089.i, ptr noundef %2, ptr noundef %.049, ptr noundef nonnull %4, ptr noundef %5, i32 noundef %37, i32 noundef 0) #5
  %39 = add nuw nsw i32 %.010.i, 1
  %exitcond.not.i = icmp eq i32 %39, 84
  br i1 %exitcond.not.i, label %drsuapi_dissect_element_DsReplicaAddRequest1_schedule.exit, label %36, !llvm.loop !4

drsuapi_dissect_element_DsReplicaAddRequest1_schedule.exit: ; preds = %36
  %40 = load i32, ptr @hf_drsuapi_drsuapi_DsReplicaAddRequest1_options, align 4
  %41 = tail call i32 @drsuapi_dissect_bitmap_DrsOptions(ptr noundef %0, i32 noundef %38, ptr noundef %2, ptr noundef %.049, ptr noundef nonnull %4, ptr noundef %5, i32 noundef %40, i32 poison)
  %42 = sub i32 %41, %.0
  tail call void @proto_item_set_len(ptr noundef %.050, i32 noundef %42) #5
  %43 = load ptr, ptr %9, align 8
  %44 = getelementptr inbounds nuw i8, ptr %43, i64 96
  %45 = load i32, ptr %44, align 8
  %46 = and i32 %45, 1
  %.not57 = icmp eq i32 %46, 0
  br i1 %.not57, label %54, label %47

47:                                               ; preds = %drsuapi_dissect_element_DsReplicaAddRequest1_schedule.exit
  %48 = getelementptr inbounds nuw i8, ptr %4, i64 28
  %49 = load i32, ptr %48, align 4
  %.not58 = icmp ne i32 %49, 0
  %50 = and i32 %41, 7
  %.not59 = icmp eq i32 %50, 0
  %or.cond61 = or i1 %.not59, %.not58
  br i1 %or.cond61, label %54, label %51

51:                                               ; preds = %47
  %52 = and i32 %41, -8
  %53 = add i32 %52, 8
  br label %54

54:                                               ; preds = %51, %47, %drsuapi_dissect_element_DsReplicaAddRequest1_schedule.exit
  %.1 = phi i32 [ %41, %47 ], [ %53, %51 ], [ %41, %drsuapi_dissect_element_DsReplicaAddRequest1_schedule.exit ]
  ret i32 %.1
}